target datalayout = "e-m:e-p270:32:32-p271:32:32-p272:64:64-i64:64-i128:128-f80:128-n8:16:32:64-S128"
target triple = "x86_64-pc-linux-gnu"

%struct.preference = type { ptr, ptr, ptr, i32, i32, i32, %union.anon, %union.anon.0, %union.anon.1, %union.anon.2, %struct.pref_custom_cbs, ptr, ptr }
%union.anon = type { ptr }
%union.anon.0 = type { ptr }
%union.anon.1 = type { ptr }
%union.anon.2 = type { %struct.anon }
%struct.anon = type { ptr, i8 }
%struct.pref_custom_cbs = type { ptr, ptr, ptr, ptr, ptr, ptr, ptr }

@.str = private unnamed_addr constant [5 x i8] c"Epan\00", align 1
@.str.1 = private unnamed_addr constant [13 x i8] c"epan/prefs.c\00", align 1
@.str.8 = private unnamed_addr constant [31 x i8] c"assertion \22not reached\22 failed\00", align 1
@__func__.prefs_add_list_value = private unnamed_addr constant [21 x i8] c"prefs_add_list_value\00", align 1

; Function Attrs: null_pointer_is_valid sspstrong uwtable
define zeroext i1 @prefs_add_list_value(ptr noundef %0, ptr noundef %1, i32 noundef %2) #1 {
  %4 = alloca ptr, align 8
  %5 = alloca ptr, align 8
  %6 = alloca i32, align 4
  store ptr %0, ptr %4, align 8
  store ptr %1, ptr %5, align 8
  store i32 %2, ptr %6, align 4
  %7 = load i32, ptr %6, align 4
  switch i32 %7, label %34 [
    i32 0, label %8
    i32 1, label %16
    i32 2, label %24
  ]

8:                                                ; preds = %3
  %9 = load ptr, ptr %4, align 8
  %10 = getelementptr inbounds nuw %struct.preference, ptr %9, i32 0, i32 8
  %11 = load ptr, ptr %10, align 8
  %12 = load ptr, ptr %5, align 8
  %13 = call ptr @g_list_prepend(ptr noundef %11, ptr noundef %12)
  %14 = load ptr, ptr %4, align 8
  %15 = getelementptr inbounds nuw %struct.preference, ptr %14, i32 0, i32 8
  store ptr %13, ptr %15, align 8
  br label %35

16:                                               ; preds = %3
  %17 = load ptr, ptr %4, align 8
  %18 = getelementptr inbounds nuw %struct.preference, ptr %17, i32 0, i32 7
  %19 = load ptr, ptr %18, align 8
  %20 = load ptr, ptr %5, align 8
  %21 = call ptr @g_list_prepend(ptr noundef %19, ptr noundef %20)
  %22 = load ptr, ptr %4, align 8
  %23 = getelementptr inbounds nuw %struct.preference, ptr %22, i32 0, i32 7
  store ptr %21, ptr %23, align 8
  br label %35

24:                                               ; preds = %3
  %25 = load ptr, ptr %4, align 8
  %26 = getelementptr inbounds nuw %struct.preference, ptr %25, i32 0, i32 6
  %27 = load ptr, ptr %26, align 8
  %28 = load ptr, ptr %27, align 8
  %29 = load ptr, ptr %5, align 8
  %30 = call ptr @g_list_prepend(ptr noundef %28, ptr noundef %29)
  %31 = load ptr, ptr %4, align 8
  %32 = getelementptr inbounds nuw %struct.preference, ptr %31, i32 0, i32 6
  %33 = load ptr, ptr %32, align 8
  store ptr %30, ptr %33, align 8
  br label %35

34:                                               ; preds = %3
  call void (ptr, i32, ptr, i64, ptr, ptr, ...) @ws_log_fatal_full(ptr noundef @.str, i32 noundef 7, ptr noundef @.str.1, i64 noundef 1702, ptr noundef @__func__.prefs_add_list_value, ptr noundef @.str.8) #18
  unreachable

35:                                               ; preds = %24, %16, %8
  ret i1 true
}