; Function Attrs: null_pointer_is_valid sspstrong uwtable
define noundef zeroext i1 @prefs_add_list_value(ptr noundef captures(none) %0, ptr noundef %1, i32 noundef %2) local_unnamed_addr #1 {
  switch i32 %2, label %18 [
    i32 0, label %4
    i32 1, label %8
    i32 2, label %12
  ]

4:                                                ; preds = %3
  %5 = getelementptr inbounds nuw i8, ptr %0, i64 56
  %6 = load ptr, ptr %5, align 8
  %7 = tail call ptr @g_list_prepend(ptr noundef %6, ptr noundef %1)
  store ptr %7, ptr %5, align 8
  br label %19

8:                                                ; preds = %3
  %9 = getelementptr inbounds nuw i8, ptr %0, i64 48
  %10 = load ptr, ptr %9, align 8
  %11 = tail call ptr @g_list_prepend(ptr noundef %10, ptr noundef %1)
  store ptr %11, ptr %9, align 8
  br label %19

12:                                               ; preds = %3
  %13 = getelementptr inbounds nuw i8, ptr %0, i64 40
  %14 = load ptr, ptr %13, align 8
  %15 = load ptr, ptr %14, align 8
  %16 = tail call ptr @g_list_prepend(ptr noundef %15, ptr noundef %1)
  %17 = load ptr, ptr %13, align 8
  store ptr %16, ptr %17, align 8
  br label %19

18:                                               ; preds = %3
  tail call void (ptr, i32, ptr, i64, ptr, ptr, ...) @ws_log_fatal_full(ptr noundef nonnull @.str, i32 noundef 7, ptr noundef nonnull @.str.1, i64 noundef 1702, ptr noundef nonnull @__func__.prefs_add_list_value, ptr noundef nonnull @.str.8) #26
  unreachable

19:                                               ; preds = %12, %8, %4
  ret i1 true
}